target datalayout = "e-m:e-p270:32:32-p271:32:32-p272:64:64-i64:64-i128:128-f80:128-n8:16:32:64-S128"
target triple = "x86_64-pc-linux-gnu"

; Function Attrs: mustprogress nounwind uwtable
define hidden noundef i64 @_ZN4LIEF15vector_iostream12uleb128_sizeEm(i64 noundef %0) #0 align 2 {
  %2 = alloca i64, align 8
  %3 = alloca i64, align 8
  store i64 %0, ptr %2, align 8, !tbaa !3
  call void @llvm.lifetime.start.p0(i64 8, ptr %3) #10
  store i64 0, ptr %3, align 8, !tbaa !3
  br label %4

4:                                                ; preds = %9, %1
  %5 = load i64, ptr %2, align 8, !tbaa !3
  %6 = lshr i64 %5, 7
  store i64 %6, ptr %2, align 8, !tbaa !3
  %7 = load i64, ptr %3, align 8, !tbaa !3
  %8 = add i64 %7, 1
  store i64 %8, ptr %3, align 8, !tbaa !3
  br label %9

9:                                                ; preds = %4
  %10 = load i64, ptr %2, align 8, !tbaa !3
  %11 = icmp ne i64 %10, 0
  br i1 %11, label %4, label %12, !llvm.loop !7

12:                                               ; preds = %9
  %13 = load i64, ptr %3, align 8, !tbaa !3
  call void @llvm.lifetime.end.p0(i64 8, ptr %3) #10
  ret i64 %13
}