; Function Attrs: mustprogress nofree norecurse nosync nounwind willreturn memory(none) uwtable
define hidden noundef range(i64 1, 0) i64 @_ZN4LIEF15vector_iostream12uleb128_sizeEm(i64 noundef %0) local_unnamed_addr #0 align 2 {
  br label %2

2:                                                ; preds = %2, %1
  %.04 = phi i64 [ %0, %1 ], [ %3, %2 ]
  %.0 = phi i64 [ 0, %1 ], [ %4, %2 ]
  %3 = lshr i64 %.04, 7
  %4 = add nuw nsw i64 %.0, 1
  %.not = icmp ult i64 %.04, 128
  br i1 %.not, label %5, label %2, !llvm.loop !3

5:                                                ; preds = %2
  ret i64 %4
}